(dp0
S'handsome'
p1
(dp2
S'1'
p3
(dp4
S'rich'
p5
(dp6
g3
S'yes'
p7
sS'0'
p8
(dp9
S'tall'
p10
(dp11
g3
S'yes'
p12
sg8
S'no'
p13
sssssg8
(dp14
g5
(dp15
g3
(dp16
g10
(dp17
g3
S'yes'
p18
sg8
S'no'
p19
sssg8
S'no'
p20
ssss.